target datalayout = "e-m:e-p270:32:32-p271:32:32-p272:64:64-i64:64-i128:128-f80:128-n8:16:32:64-S128"
target triple = "x86_64-pc-linux-gnu"

%class.symbol = type { ptr }
%class.params_ref = type { ptr }
%"class.(anonymous namespace)::smt_solver" = type { %class.solver_na2as, %struct.smt_params, %"class.smt::kernel", ptr, %class.symbol, i8, i8, i32, i8, [7 x i8], %class.obj_map, %class.params_ref, %struct.smt_params }
%class.solver_na2as = type { %class.solver, %class.ref_vector, %class.svector }
%class.solver = type { %class.check_sat_result, %"class.user_propagator::core", %class.params_ref, %class.symbol }
%class.check_sat_result = type { ptr, ptr, %class.ref_vector, %class.obj_ref, i32, i32, %class.ref, double }
%class.obj_ref = type { ptr, ptr }
%class.ref = type { ptr }
%"class.user_propagator::core" = type { ptr }
%class.ref_vector = type { %class.ref_vector_core }
%class.ref_vector_core = type { %class.ref_manager_wrapper, %class.ptr_vector }
%class.ref_manager_wrapper = type { ptr }
%class.ptr_vector = type { %class.vector }
%class.vector = type { ptr }
%class.svector = type { %class.vector.0 }
%class.vector.0 = type { ptr }
%"class.smt::kernel" = type { ptr }
%class.obj_map = type { %class.core_hashtable }
%class.core_hashtable = type <{ ptr, i32, i32, i32, [4 x i8] }>
%struct.smt_params = type { %struct.preprocessor_params.base, %struct.dyn_ack_params, %struct.qi_params, %struct.theory_arith_params.base, i8, %struct.theory_array_params.base, %struct.theory_bv_params, [4 x i8], %struct.theory_str_params.base, %struct.theory_seq_params, %struct.theory_pb_params.base, %struct.theory_datatype_params, i8, i8, i8, i8, i8, i8, i32, i8, i32, double, double, i32, i32, i32, i32, i32, i8, i32, i32, i32, i32, i32, i32, i8, i32, i8, i8, i8, i8, i8, %class.symbol, i8, i8, i32, i32, i8, i8, i8, i8, i32, i8, i32, i32, double, i8, double, double, i32, i8, i32, i32, double, i32, i32, i32, i32, i32, double, i8, i8, i8, i8, %class.symbol, i8, i8, i8, i8, i8, i8, i32, i8, i8, i8, i8, i8, i8, i8, i8, i8, double, i8, %class.symbol }
%struct.preprocessor_params.base = type <{ %struct.pattern_inference_params.base, %struct.bit_blaster_params, i32, i32, i8, i8, i8, i8, i8, i8, i8, i8, i8, i8, i8, i8, i8, i8, i8, i8, i8, i8, i8 }>
%struct.pattern_inference_params.base = type <{ i8, [3 x i8], i32, i8, i8, [2 x i8], i32, i8, [3 x i8], i32, i32, i8, [3 x i8], i32, i8, i8 }>
%struct.bit_blaster_params = type { i8, i8 }
%struct.dyn_ack_params = type { i32, i8, double, i32, i32, double }
%struct.qi_params = type { %"class.std::__cxx11::basic_string", %"class.std::__cxx11::basic_string", double, double, i32, i32, i8, i32, i32, i8, i8, i32, i8, i8, i8, i8, i32, i32, i32, i8, i32, ptr }
%"class.std::__cxx11::basic_string" = type { %"struct.std::__cxx11::basic_string<char>::_Alloc_hider", i64, %union.anon }
%"struct.std::__cxx11::basic_string<char>::_Alloc_hider" = type { ptr }
%union.anon = type { i64, [8 x i8] }
%struct.theory_arith_params.base = type <{ i8, i8, [2 x i8], i32, i8, [3 x i8], i32, i8, [3 x i8], i32, i8, i8, [2 x i8], i32, i32, i8, i8, [2 x i8], i32, i32, i8, [3 x i8], i32, i32, i8, [3 x i8], double, double, i8, [3 x i8], i32, i8, i8, i8, i8, i8, [3 x i8], i32, i8, i8, [2 x i8], i32, i8, [3 x i8], i32, i8, i8, i8, i8, i8, i8, [2 x i8], i32, i8, i8, [2 x i8], i32, i8, [3 x i8], i32, i8, i8, i8 }>
%struct.theory_array_params.base = type <{ i8, i8, [2 x i8], i32, i8, i8, [2 x i8], i32, i8, i8, i8, i8, i32, i8 }>
%struct.theory_bv_params = type { i32, i8, i8, i8, i8, i32, i8, i8, i8, i8, i32 }
%struct.theory_str_params.base = type <{ i8, i8, i8, i8, i8, i8, i8, i8, double, i32, i32, i32, i32, i32, i8, i8 }>
%struct.theory_seq_params = type { i8, i8, i32, i32 }
%struct.theory_pb_params.base = type <{ i32, i8 }>
%struct.theory_datatype_params = type { i32 }

; Function Attrs: mustprogress nounwind uwtable
define linkonce_odr hidden void @_ZN6vectorIP4exprLb0EjEC2Ev(ptr noundef nonnull align 8 dereferenceable(8) %0) unnamed_addr #8 comdat align 2 {
  %2 = alloca ptr, align 8
  store ptr %0, ptr %2, align 8, !tbaa !441
  %3 = load ptr, ptr %2, align 8
  %4 = getelementptr inbounds nuw %class.vector, ptr %3, i32 0, i32 0
  store ptr null, ptr %4, align 8, !tbaa !443
  ret void
}

; Function Attrs: mustprogress nounwind uwtable
define linkonce_odr hidden void @_ZN10ptr_vectorI4exprEC2Ev(ptr noundef nonnull align 8 dereferenceable(8) %0) unnamed_addr #8 comdat align 2 {
  %2 = alloca ptr, align 8
  store ptr %0, ptr %2, align 8, !tbaa !206
  %3 = load ptr, ptr %2, align 8
  call void @_ZN6vectorIP4exprLb0EjEC2Ev(ptr noundef nonnull align 8 dereferenceable(8) %3) #3
  ret void
}

; Function Attrs: mustprogress nounwind uwtable
define linkonce_odr hidden void @_ZN15ref_vector_coreI4expr19ref_manager_wrapperIS0_11ast_managerEEC2ERKS3_(ptr noundef nonnull align 8 dereferenceable(16) %0, ptr noundef nonnull align 8 dereferenceable(8) %1) unnamed_addr #8 comdat align 2 {
  %3 = alloca ptr, align 8
  %4 = alloca ptr, align 8
  store ptr %0, ptr %3, align 8, !tbaa !437
  store ptr %1, ptr %4, align 8, !tbaa !444
  %5 = load ptr, ptr %3, align 8
  %6 = load ptr, ptr %4, align 8, !tbaa !444
  call void @llvm.memcpy.p0.p0.i64(ptr align 8 %5, ptr align 8 %6, i64 8, i1 false), !tbaa.struct !497
  %7 = getelementptr inbounds nuw %class.ref_vector_core, ptr %5, i32 0, i32 1
  call void @_ZN10ptr_vectorI4exprEC2Ev(ptr noundef nonnull align 8 dereferenceable(8) %7) #3
  ret void
}

; Function Attrs: mustprogress nounwind uwtable
define linkonce_odr hidden void @_ZN19ref_manager_wrapperI4expr11ast_managerEC2ERS1_(ptr noundef nonnull align 8 dereferenceable(8) %0, ptr noundef nonnull align 8 dereferenceable(976) %1) unnamed_addr #8 comdat align 2 {
  %3 = alloca ptr, align 8
  %4 = alloca ptr, align 8
  store ptr %0, ptr %3, align 8, !tbaa !444
  store ptr %1, ptr %4, align 8, !tbaa !3
  %5 = load ptr, ptr %3, align 8
  %6 = getelementptr inbounds nuw %class.ref_manager_wrapper, ptr %5, i32 0, i32 0
  %7 = load ptr, ptr %4, align 8, !tbaa !3
  store ptr %7, ptr %6, align 8, !tbaa !3
  ret void
}

; Function Attrs: mustprogress uwtable
define linkonce_odr hidden void @_ZN10ref_vectorI4expr11ast_managerEC2ERS1_(ptr noundef nonnull align 8 dereferenceable(16) %0, ptr noundef nonnull align 8 dereferenceable(976) %1) unnamed_addr #4 comdat align 2 {
  %3 = alloca ptr, align 8
  %4 = alloca ptr, align 8
  %5 = alloca %class.ref_manager_wrapper, align 8
  store ptr %0, ptr %3, align 8, !tbaa !180
  store ptr %1, ptr %4, align 8, !tbaa !3
  %6 = load ptr, ptr %3, align 8
  call void @llvm.lifetime.start.p0(i64 8, ptr %5) #3
  %7 = load ptr, ptr %4, align 8, !tbaa !3
  call void @_ZN19ref_manager_wrapperI4expr11ast_managerEC2ERS1_(ptr noundef nonnull align 8 dereferenceable(8) %5, ptr noundef nonnull align 8 dereferenceable(976) %7)
  call void @_ZN15ref_vector_coreI4expr19ref_manager_wrapperIS0_11ast_managerEEC2ERKS3_(ptr noundef nonnull align 8 dereferenceable(16) %6, ptr noundef nonnull align 8 dereferenceable(8) %5)
  call void @llvm.lifetime.end.p0(i64 8, ptr %5) #3
  ret void
}

; Function Attrs: mustprogress uwtable
define internal noundef i32 @_ZN12_GLOBAL__N_110smt_solver21get_consequences_coreERK10ref_vectorI4expr11ast_managerES6_RS4_(ptr noundef nonnull align 8 dereferenceable(1808) %0, ptr noundef nonnull align 8 dereferenceable(16) %1, ptr noundef nonnull align 8 dereferenceable(16) %2, ptr noundef nonnull align 8 dereferenceable(16) %3) unnamed_addr #4 align 2 personality ptr @__gxx_personality_v0 {
  %5 = alloca ptr, align 8
  %6 = alloca ptr, align 8
  %7 = alloca ptr, align 8
  %8 = alloca ptr, align 8
  %9 = alloca %class.ref_vector, align 8
  %10 = alloca ptr, align 8
  %11 = alloca i32, align 4
  store ptr %0, ptr %5, align 8, !tbaa !12
  store ptr %1, ptr %6, align 8, !tbaa !180
  store ptr %2, ptr %7, align 8, !tbaa !180
  store ptr %3, ptr %8, align 8, !tbaa !180
  %12 = load ptr, ptr %5, align 8
  call void @llvm.lifetime.start.p0(i64 16, ptr %9) #3
  %13 = getelementptr inbounds nuw %"class.(anonymous namespace)::smt_solver", ptr %12, i32 0, i32 2
  %14 = call noundef nonnull align 8 dereferenceable(976) ptr @_ZNK3smt6kernel1mEv(ptr noundef nonnull align 8 dereferenceable(8) %13)
  call void @_ZN10ref_vectorI4expr11ast_managerEC2ERS1_(ptr noundef nonnull align 8 dereferenceable(16) %9, ptr noundef nonnull align 8 dereferenceable(976) %14)
  %15 = getelementptr inbounds nuw %"class.(anonymous namespace)::smt_solver", ptr %12, i32 0, i32 2
  %16 = load ptr, ptr %6, align 8, !tbaa !180
  %17 = load ptr, ptr %7, align 8, !tbaa !180
  %18 = load ptr, ptr %8, align 8, !tbaa !180
  %19 = invoke noundef i32 @_ZN3smt6kernel16get_consequencesERK10ref_vectorI4expr11ast_managerES6_RS4_S7_(ptr noundef nonnull align 8 dereferenceable(8) %15, ptr noundef nonnull align 8 dereferenceable(16) %16, ptr noundef nonnull align 8 dereferenceable(16) %17, ptr noundef nonnull align 8 dereferenceable(16) %18, ptr noundef nonnull align 8 dereferenceable(16) %9)
          to label %20 unwind label %21

20:                                               ; preds = %4
  call void @_ZN15ref_vector_coreI4expr19ref_manager_wrapperIS0_11ast_managerEED2Ev(ptr noundef nonnull align 8 dereferenceable(16) %9) #3
  call void @llvm.lifetime.end.p0(i64 16, ptr %9) #3
  ret i32 %19

21:                                               ; preds = %4
  %22 = landingpad { ptr, i32 }
          cleanup
  %23 = extractvalue { ptr, i32 } %22, 0
  store ptr %23, ptr %10, align 8
  %24 = extractvalue { ptr, i32 } %22, 1
  store i32 %24, ptr %11, align 4
  call void @_ZN15ref_vector_coreI4expr19ref_manager_wrapperIS0_11ast_managerEED2Ev(ptr noundef nonnull align 8 dereferenceable(16) %9) #3
  call void @llvm.lifetime.end.p0(i64 16, ptr %9) #3
  br label %25

25:                                               ; preds = %21
  %26 = load ptr, ptr %10, align 8
  %27 = load i32, ptr %11, align 4
  %28 = insertvalue { ptr, i32 } poison, ptr %26, 0
  %29 = insertvalue { ptr, i32 } %28, i32 %27, 1
  resume { ptr, i32 } %29
}